; Function Attrs: nounwind uwtable
define internal fastcc noundef i32 @php_var_serialize_call_magic_serialize(ptr noundef %0, ptr nocapture noundef readonly %1) unnamed_addr #0 {
  %3 = load i32, ptr getelementptr inbounds (%struct._php_basic_globals, ptr @basic_globals, i64 0, i32 22), align 8
  %4 = add i32 %3, 1
  store i32 %4, ptr getelementptr inbounds (%struct._php_basic_globals, ptr @basic_globals, i64 0, i32 22), align 8
  %5 = load ptr, ptr %1, align 8
  %6 = getelementptr inbounds i8, ptr %5, i64 16
  %7 = load ptr, ptr %6, align 8
  %8 = getelementptr inbounds i8, ptr %7, i64 344
  %9 = load ptr, ptr %8, align 8
  tail call void @zend_call_known_function(ptr noundef %9, ptr noundef %5, ptr noundef %7, ptr noundef %0, i32 noundef 0, ptr noundef null, ptr noundef null) #12
  %10 = load i32, ptr getelementptr inbounds (%struct._php_basic_globals, ptr @basic_globals, i64 0, i32 22), align 8
  %11 = add i32 %10, -1
  store i32 %11, ptr getelementptr inbounds (%struct._php_basic_globals, ptr @basic_globals, i64 0, i32 22), align 8
  %12 = load ptr, ptr getelementptr inbounds (%struct._zend_executor_globals, ptr @executor_globals, i64 0, i32 50), align 8
  %.not = icmp eq ptr %12, null
  br i1 %.not, label %14, label %13

13:                                               ; preds = %2
  tail call void @zval_ptr_dtor(ptr noundef %0) #12
  br label %24

14:                                               ; preds = %2
  %15 = getelementptr inbounds i8, ptr %0, i64 8
  %16 = load i8, ptr %15, align 8
  %.not17 = icmp eq i8 %16, 7
  br i1 %.not17, label %24, label %17

17:                                               ; preds = %14
  tail call void @zval_ptr_dtor(ptr noundef nonnull %0) #12
  %18 = load ptr, ptr %1, align 8
  %19 = getelementptr inbounds i8, ptr %18, i64 16
  %20 = load ptr, ptr %19, align 8
  %21 = getelementptr inbounds i8, ptr %20, i64 8
  %22 = load ptr, ptr %21, align 8
  %23 = getelementptr inbounds i8, ptr %22, i64 24
  tail call void (ptr, ...) @zend_type_error(ptr noundef nonnull @.str.85, ptr noundef nonnull %23) #12
  br label %24

24:                                               ; preds = %14, %17, %13
  %.0 = phi i32 [ -1, %13 ], [ -1, %17 ], [ 0, %14 ]
  ret i32 %.0
}